; Function Attrs: nounwind uwtable
define dso_local void @mp_encode_double(ptr noundef %0, ptr noundef captures(none) %1, double noundef %2) local_unnamed_addr #2 {
  %4 = alloca ptr, align 8
  %5 = alloca ptr, align 8
  %6 = alloca [9 x i8], align 1
  call void @llvm.lifetime.start.p0(i64 9, ptr nonnull %6) #10
  %7 = fptrunc double %2 to float
  %8 = fpext float %7 to double
  %9 = fcmp oeq double %2, %8
  %10 = getelementptr inbounds nuw i8, ptr %6, i64 1
  br i1 %9, label %11, label %42

11:                                               ; preds = %3
  store i8 -54, ptr %6, align 1, !tbaa !4
  store float %7, ptr %10, align 1
  %12 = getelementptr inbounds nuw i8, ptr %6, i64 5
  br label %.lr.ph.i

.lr.ph.i:                                         ; preds = %.lr.ph.i, %11
  %.017.i = phi i64 [ %13, %.lr.ph.i ], [ 2, %11 ]
  %.01216.i = phi ptr [ %16, %.lr.ph.i ], [ %10, %11 ]
  %.pn15.i = phi ptr [ %.013.i, %.lr.ph.i ], [ %12, %11 ]
  %.013.i = getelementptr inbounds i8, ptr %.pn15.i, i64 -1
  %13 = add nsw i64 %.017.i, -1
  %14 = load i8, ptr %.01216.i, align 1, !tbaa !4
  %15 = load i8, ptr %.013.i, align 1, !tbaa !4
  store i8 %15, ptr %.01216.i, align 1, !tbaa !4
  store i8 %14, ptr %.013.i, align 1, !tbaa !4
  %16 = getelementptr inbounds nuw i8, ptr %.01216.i, i64 1
  %.not.i = icmp eq i64 %13, 0
  br i1 %.not.i, label %memrevifle.exit, label %.lr.ph.i, !llvm.loop !7

memrevifle.exit:                                  ; preds = %.lr.ph.i
  %17 = getelementptr inbounds nuw i8, ptr %1, i64 16
  %18 = load i64, ptr %17, align 8, !tbaa !11
  %19 = icmp ult i64 %18, 5
  br i1 %19, label %20, label %._crit_edge.i

._crit_edge.i:                                    ; preds = %memrevifle.exit
  %.pre.i = load ptr, ptr %1, align 8, !tbaa !15
  %.phi.trans.insert.i = getelementptr inbounds nuw i8, ptr %1, i64 8
  %.pre28.i = load i64, ptr %.phi.trans.insert.i, align 8, !tbaa !16
  br label %mp_buf_append.exit

20:                                               ; preds = %memrevifle.exit
  %21 = getelementptr inbounds nuw i8, ptr %1, i64 8
  %22 = load i64, ptr %21, align 8, !tbaa !16
  %or.cond.i = icmp ugt i64 %22, 9223372036854775801
  br i1 %or.cond.i, label %23, label %24

23:                                               ; preds = %20
  tail call void @abort() #11
  unreachable

24:                                               ; preds = %20
  %25 = shl nuw i64 %22, 1
  %26 = add nuw i64 %25, 10
  %27 = load ptr, ptr %1, align 8, !tbaa !15
  %28 = add nuw nsw i64 %22, %18
  call void @llvm.lifetime.start.p0(i64 8, ptr nonnull %5) #10
  %29 = call ptr @lua_getallocf(ptr noundef %0, ptr noundef nonnull %5) #10
  %30 = load ptr, ptr %5, align 8, !tbaa !9
  %31 = call ptr %29(ptr noundef %30, ptr noundef %27, i64 noundef %28, i64 noundef %26) #10
  call void @llvm.lifetime.end.p0(i64 8, ptr nonnull %5) #10
  store ptr %31, ptr %1, align 8, !tbaa !15
  %32 = load i64, ptr %21, align 8, !tbaa !16
  %33 = sub i64 %26, %32
  store i64 %33, ptr %17, align 8, !tbaa !11
  br label %mp_buf_append.exit

mp_buf_append.exit:                               ; preds = %._crit_edge.i, %24
  %34 = phi i64 [ %.pre28.i, %._crit_edge.i ], [ %32, %24 ]
  %35 = phi ptr [ %.pre.i, %._crit_edge.i ], [ %31, %24 ]
  %36 = getelementptr inbounds nuw i8, ptr %1, i64 8
  %37 = getelementptr inbounds nuw i8, ptr %35, i64 %34
  call void @llvm.memcpy.p0.p0.i64(ptr noundef nonnull align 1 dereferenceable(5) %37, ptr noundef nonnull readonly align 1 dereferenceable(5) %6, i64 5, i1 false)
  %38 = load i64, ptr %36, align 8, !tbaa !16
  %39 = add i64 %38, 5
  store i64 %39, ptr %36, align 8, !tbaa !16
  %40 = load i64, ptr %17, align 8, !tbaa !11
  %41 = add i64 %40, -5
  store i64 %41, ptr %17, align 8, !tbaa !11
  br label %73

42:                                               ; preds = %3
  store i8 -53, ptr %6, align 1, !tbaa !4
  store double %2, ptr %10, align 1
  %43 = getelementptr inbounds nuw i8, ptr %6, i64 9
  br label %.lr.ph.i8

.lr.ph.i8:                                        ; preds = %.lr.ph.i8, %42
  %.017.i9 = phi i64 [ %44, %.lr.ph.i8 ], [ 4, %42 ]
  %.01216.i10 = phi ptr [ %47, %.lr.ph.i8 ], [ %10, %42 ]
  %.pn15.i11 = phi ptr [ %.013.i12, %.lr.ph.i8 ], [ %43, %42 ]
  %.013.i12 = getelementptr inbounds i8, ptr %.pn15.i11, i64 -1
  %44 = add nsw i64 %.017.i9, -1
  %45 = load i8, ptr %.01216.i10, align 1, !tbaa !4
  %46 = load i8, ptr %.013.i12, align 1, !tbaa !4
  store i8 %46, ptr %.01216.i10, align 1, !tbaa !4
  store i8 %45, ptr %.013.i12, align 1, !tbaa !4
  %47 = getelementptr inbounds nuw i8, ptr %.01216.i10, i64 1
  %.not.i13 = icmp eq i64 %44, 0
  br i1 %.not.i13, label %memrevifle.exit15, label %.lr.ph.i8, !llvm.loop !7

memrevifle.exit15:                                ; preds = %.lr.ph.i8
  %48 = getelementptr inbounds nuw i8, ptr %1, i64 16
  %49 = load i64, ptr %48, align 8, !tbaa !11
  %50 = icmp ult i64 %49, 9
  br i1 %50, label %51, label %._crit_edge.i16

._crit_edge.i16:                                  ; preds = %memrevifle.exit15
  %.pre.i17 = load ptr, ptr %1, align 8, !tbaa !15
  %.phi.trans.insert.i18 = getelementptr inbounds nuw i8, ptr %1, i64 8
  %.pre28.i19 = load i64, ptr %.phi.trans.insert.i18, align 8, !tbaa !16
  br label %mp_buf_append.exit21

51:                                               ; preds = %memrevifle.exit15
  %52 = getelementptr inbounds nuw i8, ptr %1, i64 8
  %53 = load i64, ptr %52, align 8, !tbaa !16
  %or.cond.i20 = icmp ugt i64 %53, 9223372036854775797
  br i1 %or.cond.i20, label %54, label %55

54:                                               ; preds = %51
  tail call void @abort() #11
  unreachable

55:                                               ; preds = %51
  %56 = shl nuw i64 %53, 1
  %57 = add nuw i64 %56, 18
  %58 = load ptr, ptr %1, align 8, !tbaa !15
  %59 = add nuw nsw i64 %53, %49
  call void @llvm.lifetime.start.p0(i64 8, ptr nonnull %4) #10
  %60 = call ptr @lua_getallocf(ptr noundef %0, ptr noundef nonnull %4) #10
  %61 = load ptr, ptr %4, align 8, !tbaa !9
  %62 = call ptr %60(ptr noundef %61, ptr noundef %58, i64 noundef %59, i64 noundef %57) #10
  call void @llvm.lifetime.end.p0(i64 8, ptr nonnull %4) #10
  store ptr %62, ptr %1, align 8, !tbaa !15
  %63 = load i64, ptr %52, align 8, !tbaa !16
  %64 = sub i64 %57, %63
  store i64 %64, ptr %48, align 8, !tbaa !11
  br label %mp_buf_append.exit21

mp_buf_append.exit21:                             ; preds = %._crit_edge.i16, %55
  %65 = phi i64 [ %.pre28.i19, %._crit_edge.i16 ], [ %63, %55 ]
  %66 = phi ptr [ %.pre.i17, %._crit_edge.i16 ], [ %62, %55 ]
  %67 = getelementptr inbounds nuw i8, ptr %1, i64 8
  %68 = getelementptr inbounds nuw i8, ptr %66, i64 %65
  call void @llvm.memcpy.p0.p0.i64(ptr noundef nonnull align 1 dereferenceable(9) %68, ptr noundef nonnull readonly align 1 dereferenceable(9) %6, i64 9, i1 false)
  %69 = load i64, ptr %67, align 8, !tbaa !16
  %70 = add i64 %69, 9
  store i64 %70, ptr %67, align 8, !tbaa !16
  %71 = load i64, ptr %48, align 8, !tbaa !11
  %72 = add i64 %71, -9
  store i64 %72, ptr %48, align 8, !tbaa !11
  br label %73

73:                                               ; preds = %mp_buf_append.exit21, %mp_buf_append.exit
  call void @llvm.lifetime.end.p0(i64 9, ptr nonnull %6) #10
  ret void
}